#include <math.h>
#include <stdio.h>
#include <stdlib.h>
#include <string.h>

void main()
{
  char *a,*b;
  int i=0,k=-1,q=0,n,m=0;
  a=(char*)malloc(100000*sizeof(char));
  b=(char*)malloc(100000*sizeof(char));
  scanf ("%c",a);
  while (*(a+i)!='\n')
  { i++; scanf ("%c",a+i);  }
  n=i;
  for (i=0;i<n;i++)
  {
  	if (*(a+i)!=32) {q=1;k++;m++;}
	else 
	{
	if (q==1) {k++;m++;}
	 q=0;
    } 
	*(b+k)=*(a+i);
  }
  for (i=0;i<m;i++)
  {
  	printf ("%c",*(b+i));
  }
}